target datalayout = "e-m:e-p270:32:32-p271:32:32-p272:64:64-i64:64-i128:128-f80:128-n8:16:32:64-S128"
target triple = "x86_64-unknown-linux-gnu"

%class.Dependencies = type { %"class.std::__cxx11::basic_string", %"class.std::__cxx11::basic_string" }
%"class.std::__cxx11::basic_string" = type { %"struct.std::__cxx11::basic_string<char>::_Alloc_hider", i64, %union.anon }
%"struct.std::__cxx11::basic_string<char>::_Alloc_hider" = type { ptr }
%union.anon = type { i64, [8 x i8] }

@_ZZ4mainE4src1 = internal constant [16 x i8] c"require('foo');\00", align 16

; Function Attrs: mustprogress nounwind uwtable
define linkonce_odr hidden void @_ZN12DependenciesD2Ev(ptr noundef nonnull align 8 dereferenceable(64) %this) unnamed_addr #0 comdat align 2 {
entry:
  %this.addr = alloca ptr, align 8
  store ptr %this, ptr %this.addr, align 8
  %this1 = load ptr, ptr %this.addr, align 8
  %deps_ = getelementptr inbounds %class.Dependencies, ptr %this1, i32 0, i32 1
  call void @_ZNSt7__cxx1112basic_stringIcSt11char_traitsIcESaIcEED1Ev(ptr noundef nonnull align 8 dereferenceable(32) %deps_) #11
  %error_ = getelementptr inbounds %class.Dependencies, ptr %this1, i32 0, i32 0
  call void @_ZNSt7__cxx1112basic_stringIcSt11char_traitsIcESaIcEED1Ev(ptr noundef nonnull align 8 dereferenceable(32) %error_) #11
  ret void
}

; Function Attrs: mustprogress nounwind uwtable
define hidden void @hermesDependencies_free(ptr noundef %res) #0 {
entry:
  %res.addr = alloca ptr, align 8
  store ptr %res, ptr %res.addr, align 8
  %0 = load ptr, ptr %res.addr, align 8
  %isnull = icmp eq ptr %0, null
  br i1 %isnull, label %delete.end, label %delete.notnull

delete.notnull:                                   ; preds = %entry
  call void @_ZN12DependenciesD2Ev(ptr noundef nonnull align 8 dereferenceable(64) %0) #11
  call void @_ZdlPv(ptr noundef %0) #14
  br label %delete.end

delete.end:                                       ; preds = %delete.notnull, %entry
  ret void
}

; Function Attrs: mustprogress norecurse nounwind uwtable
define hidden noundef i32 @main() #4 {
entry:
  %retval = alloca i32, align 4
  %res1 = alloca ptr, align 8
  store i32 0, ptr %retval, align 4
  %call = call ptr @hermesExtractDependencies(ptr noundef @_ZZ4mainE4src1, i64 noundef 16)
  store ptr %call, ptr %res1, align 8
  %0 = load ptr, ptr %res1, align 8
  call void @hermesDependencies_free(ptr noundef %0)
  ret i32 0
}