; Function Attrs: mustprogress norecurse nounwind uwtable
define hidden noundef i32 @main() local_unnamed_addr #4 {
entry:
  %call = tail call ptr @hermesExtractDependencies(ptr noundef nonnull @_ZZ4mainE4src1, i64 noundef 16)
  %isnull.i = icmp eq ptr %call, null
  br i1 %isnull.i, label %hermesDependencies_free.exit, label %delete.notnull.i

delete.notnull.i:                                 ; preds = %entry
  %deps_.i.i = getelementptr inbounds i8, ptr %call, i64 32
  tail call void @_ZNSt7__cxx1112basic_stringIcSt11char_traitsIcESaIcEED1Ev(ptr noundef nonnull align 8 dereferenceable(32) %deps_.i.i) #12
  tail call void @_ZNSt7__cxx1112basic_stringIcSt11char_traitsIcESaIcEED1Ev(ptr noundef nonnull align 8 dereferenceable(32) %call) #12
  tail call void @_ZdlPv(ptr noundef nonnull %call) #14
  br label %hermesDependencies_free.exit

hermesDependencies_free.exit:                     ; preds = %entry, %delete.notnull.i
  ret i32 0
}